target datalayout = "e-m:e-p270:32:32-p271:32:32-p272:64:64-i64:64-i128:128-f80:128-n8:16:32:64-S128"
target triple = "x86_64-pc-linux-gnu"

%class.ModelRegistration = type { ptr, i32, i32, %"class.std::vector", %"class.std::vector.0" }
%"class.std::vector" = type { %"struct.std::_Vector_base" }
%"struct.std::_Vector_base" = type { %"struct.std::_Vector_base<cv::Point_<float>, std::allocator<cv::Point_<float>>>::_Vector_impl" }
%"struct.std::_Vector_base<cv::Point_<float>, std::allocator<cv::Point_<float>>>::_Vector_impl" = type { %"struct.std::_Vector_base<cv::Point_<float>, std::allocator<cv::Point_<float>>>::_Vector_impl_data" }
%"struct.std::_Vector_base<cv::Point_<float>, std::allocator<cv::Point_<float>>>::_Vector_impl_data" = type { ptr, ptr, ptr }
%"class.std::vector.0" = type { %"struct.std::_Vector_base.1" }
%"struct.std::_Vector_base.1" = type { %"struct.std::_Vector_base<cv::Point3_<float>, std::allocator<cv::Point3_<float>>>::_Vector_impl" }
%"struct.std::_Vector_base<cv::Point3_<float>, std::allocator<cv::Point3_<float>>>::_Vector_impl" = type { %"struct.std::_Vector_base<cv::Point3_<float>, std::allocator<cv::Point3_<float>>>::_Vector_impl_data" }
%"struct.std::_Vector_base<cv::Point3_<float>, std::allocator<cv::Point3_<float>>>::_Vector_impl_data" = type { ptr, ptr, ptr }
%class.Mesh = type { ptr, i32, i32, %"class.std::vector.0", %"class.std::vector.13" }
%"class.std::vector.13" = type { %"struct.std::_Vector_base.14" }
%"struct.std::_Vector_base.14" = type { %"struct.std::_Vector_base<std::vector<int>, std::allocator<std::vector<int>>>::_Vector_impl" }
%"struct.std::_Vector_base<std::vector<int>, std::allocator<std::vector<int>>>::_Vector_impl" = type { %"struct.std::_Vector_base<std::vector<int>, std::allocator<std::vector<int>>>::_Vector_impl_data" }
%"struct.std::_Vector_base<std::vector<int>, std::allocator<std::vector<int>>>::_Vector_impl_data" = type { ptr, ptr, ptr }
%"class.cv::Point3_" = type { float, float, float }
%"class.cv::Point_" = type { float, float }

@end_registration = hidden global i8 0, align 1
@registration = hidden global %class.ModelRegistration zeroinitializer, align 8
@mesh = hidden global %class.Mesh zeroinitializer, align 8
@_ZL3pts = internal constant [8 x i32] [i32 1, i32 2, i32 3, i32 4, i32 5, i32 6, i32 7, i32 8], align 16

; Function Attrs: mustprogress nounwind uwtable
define linkonce_odr hidden noundef nonnull align 4 dereferenceable(12) ptr @_ZNKSt6vectorIN2cv7Point3_IfEESaIS2_EEixEm(ptr noundef nonnull align 8 dereferenceable(24) %0, i64 noundef %1) #7 comdat align 2 {
  %3 = alloca ptr, align 8
  %4 = alloca i64, align 8
  store ptr %0, ptr %3, align 8, !tbaa !90
  store i64 %1, ptr %4, align 8, !tbaa !36
  %5 = load ptr, ptr %3, align 8
  %6 = getelementptr inbounds nuw %"struct.std::_Vector_base.1", ptr %5, i32 0, i32 0
  %7 = getelementptr inbounds nuw %"struct.std::_Vector_base<cv::Point3_<float>, std::allocator<cv::Point3_<float>>>::_Vector_impl_data", ptr %6, i32 0, i32 0
  %8 = load ptr, ptr %7, align 8, !tbaa !92
  %9 = load i64, ptr %4, align 8, !tbaa !36
  %10 = getelementptr inbounds nuw %"class.cv::Point3_", ptr %8, i64 %9
  ret ptr %10
}

; Function Attrs: mustprogress nounwind uwtable
define linkonce_odr hidden noundef i32 @_ZNK17ModelRegistration9getNumMaxEv(ptr noundef nonnull align 8 dereferenceable(64) %0) #7 comdat align 2 {
  %2 = alloca ptr, align 8
  store ptr %0, ptr %2, align 8, !tbaa !65
  %3 = load ptr, ptr %2, align 8
  %4 = getelementptr inbounds nuw %class.ModelRegistration, ptr %3, i32 0, i32 2
  %5 = load i32, ptr %4, align 4, !tbaa !67
  ret i32 %5
}

; Function Attrs: mustprogress nounwind uwtable
define linkonce_odr hidden { <2 x float>, float } @_ZNK4Mesh9getVertexEi(ptr noundef nonnull align 8 dereferenceable(64) %0, i32 noundef %1) #7 comdat align 2 {
  %3 = alloca %"class.cv::Point3_", align 4
  %4 = alloca ptr, align 8
  %5 = alloca i32, align 4
  %6 = alloca { <2 x float>, float }, align 8
  store ptr %0, ptr %4, align 8, !tbaa !84
  store i32 %1, ptr %5, align 4, !tbaa !4
  %7 = load ptr, ptr %4, align 8
  %8 = getelementptr inbounds nuw %class.Mesh, ptr %7, i32 0, i32 3
  %9 = load i32, ptr %5, align 4, !tbaa !4
  %10 = sext i32 %9 to i64
  %11 = call noundef nonnull align 4 dereferenceable(12) ptr @_ZNKSt6vectorIN2cv7Point3_IfEESaIS2_EEixEm(ptr noundef nonnull align 8 dereferenceable(24) %8, i64 noundef %10) #3
  call void @llvm.memcpy.p0.p0.i64(ptr align 4 %3, ptr align 4 %11, i64 12, i1 false), !tbaa.struct !16
  call void @llvm.memcpy.p0.p0.i64(ptr align 8 %6, ptr align 4 %3, i64 12, i1 false)
  %12 = load { <2 x float>, float }, ptr %6, align 8
  ret { <2 x float>, float } %12
}

; Function Attrs: inlinehint mustprogress nounwind uwtable
define linkonce_odr hidden void @_ZN2cv6Point_IfEC2Eff(ptr noundef nonnull align 4 dereferenceable(8) %0, float noundef %1, float noundef %2) unnamed_addr #9 comdat align 2 {
  %4 = alloca ptr, align 8
  %5 = alloca float, align 4
  %6 = alloca float, align 4
  store ptr %0, ptr %4, align 8, !tbaa !186
  store float %1, ptr %5, align 4, !tbaa !17
  store float %2, ptr %6, align 4, !tbaa !17
  %7 = load ptr, ptr %4, align 8
  %8 = getelementptr inbounds nuw %"class.cv::Point_", ptr %7, i32 0, i32 0
  %9 = load float, ptr %5, align 4, !tbaa !17
  store float %9, ptr %8, align 4, !tbaa !187
  %10 = getelementptr inbounds nuw %"class.cv::Point_", ptr %7, i32 0, i32 1
  %11 = load float, ptr %6, align 4, !tbaa !17
  store float %11, ptr %10, align 4, !tbaa !189
  ret void
}

; Function Attrs: mustprogress nounwind uwtable
define linkonce_odr hidden noundef i32 @_ZNK17ModelRegistration12getNumRegistEv(ptr noundef nonnull align 8 dereferenceable(64) %0) #7 comdat align 2 {
  %2 = alloca ptr, align 8
  store ptr %0, ptr %2, align 8, !tbaa !65
  %3 = load ptr, ptr %2, align 8
  %4 = getelementptr inbounds nuw %class.ModelRegistration, ptr %3, i32 0, i32 1
  %5 = load i32, ptr %4, align 8, !tbaa !83
  ret i32 %5
}

; Function Attrs: mustprogress nounwind uwtable
define linkonce_odr hidden noundef zeroext i1 @_ZNK17ModelRegistration14is_registrableEv(ptr noundef nonnull align 8 dereferenceable(64) %0) #7 comdat align 2 {
  %2 = alloca ptr, align 8
  store ptr %0, ptr %2, align 8, !tbaa !65
  %3 = load ptr, ptr %2, align 8
  %4 = getelementptr inbounds nuw %class.ModelRegistration, ptr %3, i32 0, i32 1
  %5 = load i32, ptr %4, align 8, !tbaa !83
  %6 = getelementptr inbounds nuw %class.ModelRegistration, ptr %3, i32 0, i32 2
  %7 = load i32, ptr %6, align 4, !tbaa !67
  %8 = icmp slt i32 %5, %7
  ret i1 %8
}

; Function Attrs: mustprogress uwtable
define internal void @_ZL24onMouseModelRegistrationiiiiPv(i32 noundef %0, i32 noundef %1, i32 noundef %2, i32 noundef %3, ptr noundef %4) #10 {
  %6 = alloca i32, align 4
  %7 = alloca i32, align 4
  %8 = alloca i32, align 4
  %9 = alloca i32, align 4
  %10 = alloca ptr, align 8
  %11 = alloca i8, align 1
  %12 = alloca i32, align 4
  %13 = alloca i32, align 4
  %14 = alloca %"class.cv::Point_", align 4
  %15 = alloca %"class.cv::Point3_", align 4
  %16 = alloca { <2 x float>, float }, align 8
  store i32 %0, ptr %6, align 4, !tbaa !4
  store i32 %1, ptr %7, align 4, !tbaa !4
  store i32 %2, ptr %8, align 4, !tbaa !4
  store i32 %3, ptr %9, align 4, !tbaa !4
  store ptr %4, ptr %10, align 8, !tbaa !41
  %17 = load i32, ptr %6, align 4, !tbaa !4
  %18 = icmp eq i32 %17, 4
  br i1 %18, label %19, label %43

19:                                               ; preds = %5
  call void @llvm.lifetime.start.p0(i64 1, ptr %11) #3
  %20 = call noundef zeroext i1 @_ZNK17ModelRegistration14is_registrableEv(ptr noundef nonnull align 8 dereferenceable(64) @registration)
  %21 = zext i1 %20 to i8
  store i8 %21, ptr %11, align 1, !tbaa !12
  %22 = load i8, ptr %11, align 1, !tbaa !12, !range !14, !noundef !15
  %23 = trunc i8 %22 to i1
  br i1 %23, label %24, label %42

24:                                               ; preds = %19
  call void @llvm.lifetime.start.p0(i64 4, ptr %12) #3
  %25 = call noundef i32 @_ZNK17ModelRegistration12getNumRegistEv(ptr noundef nonnull align 8 dereferenceable(64) @registration)
  store i32 %25, ptr %12, align 4, !tbaa !4
  call void @llvm.lifetime.start.p0(i64 4, ptr %13) #3
  %26 = load i32, ptr %12, align 4, !tbaa !4
  %27 = sext i32 %26 to i64
  %28 = getelementptr inbounds [8 x i32], ptr @_ZL3pts, i64 0, i64 %27
  %29 = load i32, ptr %28, align 4, !tbaa !4
  store i32 %29, ptr %13, align 4, !tbaa !4
  call void @llvm.lifetime.start.p0(i64 8, ptr %14) #3
  %30 = load i32, ptr %7, align 4, !tbaa !4
  %31 = sitofp i32 %30 to float
  %32 = load i32, ptr %8, align 4, !tbaa !4
  %33 = sitofp i32 %32 to float
  call void @_ZN2cv6Point_IfEC2Eff(ptr noundef nonnull align 4 dereferenceable(8) %14, float noundef %31, float noundef %33)
  call void @llvm.lifetime.start.p0(i64 12, ptr %15) #3
  %34 = load i32, ptr %13, align 4, !tbaa !4
  %35 = sub nsw i32 %34, 1
  %36 = call { <2 x float>, float } @_ZNK4Mesh9getVertexEi(ptr noundef nonnull align 8 dereferenceable(64) @mesh, i32 noundef %35)
  store { <2 x float>, float } %36, ptr %16, align 8
  call void @llvm.memcpy.p0.p0.i64(ptr align 4 %15, ptr align 8 %16, i64 12, i1 false)
  call void @_ZN17ModelRegistration13registerPointERKN2cv6Point_IfEERKNS0_7Point3_IfEE(ptr noundef nonnull align 8 dereferenceable(64) @registration, ptr noundef nonnull align 4 dereferenceable(8) %14, ptr noundef nonnull align 4 dereferenceable(12) %15)
  %37 = call noundef i32 @_ZNK17ModelRegistration12getNumRegistEv(ptr noundef nonnull align 8 dereferenceable(64) @registration)
  %38 = call noundef i32 @_ZNK17ModelRegistration9getNumMaxEv(ptr noundef nonnull align 8 dereferenceable(64) @registration)
  %39 = icmp eq i32 %37, %38
  br i1 %39, label %40, label %41

40:                                               ; preds = %24
  store i8 1, ptr @end_registration, align 1, !tbaa !12
  br label %41

41:                                               ; preds = %40, %24
  call void @llvm.lifetime.end.p0(i64 12, ptr %15) #3
  call void @llvm.lifetime.end.p0(i64 8, ptr %14) #3
  call void @llvm.lifetime.end.p0(i64 4, ptr %13) #3
  call void @llvm.lifetime.end.p0(i64 4, ptr %12) #3
  br label %42

42:                                               ; preds = %41, %19
  call void @llvm.lifetime.end.p0(i64 1, ptr %11) #3
  br label %43

43:                                               ; preds = %42, %5
  ret void
}