; Function Attrs: mustprogress uwtable
define internal void @_ZL24onMouseModelRegistrationiiiiPv(i32 noundef %0, i32 noundef %1, i32 noundef %2, i32 %3, ptr readnone captures(none) %4) #6 {
  %6 = alloca %"class.cv::Point_", align 4
  %7 = alloca %"class.cv::Point3_", align 8
  %8 = icmp eq i32 %0, 4
  br i1 %8, label %9, label %29

9:                                                ; preds = %5
  %10 = load i32, ptr getelementptr inbounds nuw (i8, ptr @registration, i64 8), align 8, !tbaa !108
  %11 = load i32, ptr getelementptr inbounds nuw (i8, ptr @registration, i64 12), align 4, !tbaa !73
  %12 = icmp slt i32 %10, %11
  br i1 %12, label %13, label %29

13:                                               ; preds = %9
  %14 = sext i32 %10 to i64
  %15 = getelementptr inbounds [8 x i32], ptr @_ZL3pts, i64 0, i64 %14
  %16 = load i32, ptr %15, align 4, !tbaa !59
  call void @llvm.lifetime.start.p0(i64 8, ptr nonnull %6) #19
  %17 = sitofp i32 %1 to float
  %18 = sitofp i32 %2 to float
  store float %17, ptr %6, align 4, !tbaa !171
  %19 = getelementptr inbounds nuw i8, ptr %6, i64 4
  store float %18, ptr %19, align 4, !tbaa !173
  call void @llvm.lifetime.start.p0(i64 12, ptr nonnull %7) #19
  %20 = load ptr, ptr getelementptr inbounds nuw (i8, ptr @mesh, i64 16), align 8, !tbaa !97
  %21 = sext i32 %16 to i64
  %22 = getelementptr %"class.cv::Point3_", ptr %20, i64 %21
  %23 = getelementptr i8, ptr %22, i64 -12
  %.sroa.01.0.copyload.i = load <2 x float>, ptr %23, align 4
  %.sroa.22.0..sroa_idx.i = getelementptr i8, ptr %22, i64 -4
  %.sroa.22.0.copyload.i = load float, ptr %.sroa.22.0..sroa_idx.i, align 4, !tbaa !100
  store <2 x float> %.sroa.01.0.copyload.i, ptr %7, align 8
  %.sroa.2.0..sroa_idx = getelementptr inbounds nuw i8, ptr %7, i64 8
  store float %.sroa.22.0.copyload.i, ptr %.sroa.2.0..sroa_idx, align 8
  call void @_ZN17ModelRegistration13registerPointERKN2cv6Point_IfEERKNS0_7Point3_IfEE(ptr noundef nonnull align 8 dereferenceable(64) @registration, ptr noundef nonnull align 4 dereferenceable(8) %6, ptr noundef nonnull align 4 dereferenceable(12) %7)
  %24 = load i32, ptr getelementptr inbounds nuw (i8, ptr @registration, i64 8), align 8, !tbaa !108
  %25 = load i32, ptr getelementptr inbounds nuw (i8, ptr @registration, i64 12), align 4, !tbaa !73
  %26 = icmp eq i32 %24, %25
  br i1 %26, label %27, label %28

27:                                               ; preds = %13
  store i8 1, ptr @end_registration, align 1, !tbaa !105
  br label %28

28:                                               ; preds = %27, %13
  call void @llvm.lifetime.end.p0(i64 12, ptr nonnull %7) #19
  call void @llvm.lifetime.end.p0(i64 8, ptr nonnull %6) #19
  br label %29

29:                                               ; preds = %9, %28, %5
  ret void
}